target datalayout = "e-m:e-p270:32:32-p271:32:32-p272:64:64-i64:64-i128:128-f80:128-n8:16:32:64-S128"
target triple = "x86_64-pc-linux-gnu"

%class.ConversationAction = type <{ %class.QAction, ptr, %class.QByteArray, i32, [4 x i8] }>
%class.QAction = type { %class.QObject }
%class.QObject = type { ptr, %class.QScopedPointer }
%class.QScopedPointer = type { ptr }
%class.QByteArray = type { %struct.QArrayDataPointer }
%struct.QArrayDataPointer = type { ptr, ptr, i64 }

; Function Attrs: mustprogress nounwind uwtable
define linkonce_odr noundef ptr @_ZNK17QArrayDataPointerIcEptEv(ptr noundef nonnull align 8 dereferenceable(24) %0) #2 comdat align 2 {
  %2 = alloca ptr, align 8
  store ptr %0, ptr %2, align 8
  %3 = load ptr, ptr %2, align 8
  ret ptr %3
}

; Function Attrs: mustprogress nounwind uwtable
define linkonce_odr noundef i64 @_ZNK10QByteArray4sizeEv(ptr noundef nonnull align 8 dereferenceable(24) %0) #2 comdat align 2 {
  %2 = alloca ptr, align 8
  store ptr %0, ptr %2, align 8
  %3 = load ptr, ptr %2, align 8
  %4 = getelementptr inbounds %class.QByteArray, ptr %3, i32 0, i32 0
  %5 = call noundef ptr @_ZNK17QArrayDataPointerIcEptEv(ptr noundef nonnull align 8 dereferenceable(24) %4) #5
  %6 = getelementptr inbounds %struct.QArrayDataPointer, ptr %5, i32 0, i32 2
  %7 = load i64, ptr %6, align 8
  ret i64 %7
}

; Function Attrs: mustprogress uwtable
define linkonce_odr noundef zeroext i1 @_ZNK10QByteArray7isEmptyEv(ptr noundef nonnull align 8 dereferenceable(24) %0) #0 comdat align 2 {
  %2 = alloca ptr, align 8
  store ptr %0, ptr %2, align 8
  %3 = load ptr, ptr %2, align 8
  %4 = call noundef i64 @_ZNK10QByteArray4sizeEv(ptr noundef nonnull align 8 dereferenceable(24) %3)
  %5 = icmp eq i64 %4, 0
  ret i1 %5
}

; Function Attrs: mustprogress uwtable
define void @_ZN18ConversationAction14setFieldFilterE10QByteArray(ptr noundef nonnull align 8 dereferenceable(52) %0, ptr noundef %1) #0 align 2 {
  %3 = alloca ptr, align 8
  %4 = alloca ptr, align 8
  store ptr %0, ptr %3, align 8
  store ptr %1, ptr %4, align 8
  %5 = load ptr, ptr %3, align 8
  %6 = getelementptr inbounds %class.ConversationAction, ptr %5, i32 0, i32 2
  %7 = call noundef nonnull align 8 dereferenceable(24) ptr @_ZN10QByteArrayaSERKS_(ptr noundef nonnull align 8 dereferenceable(24) %6, ptr noundef nonnull align 8 dereferenceable(24) %1) #5
  %8 = getelementptr inbounds %class.ConversationAction, ptr %5, i32 0, i32 2
  %9 = call noundef zeroext i1 @_ZNK10QByteArray7isEmptyEv(ptr noundef nonnull align 8 dereferenceable(24) %8)
  %10 = xor i1 %9, true
  call void @_ZN7QAction10setEnabledEb(ptr noundef nonnull align 8 dereferenceable(16) %5, i1 noundef zeroext %10)
  ret void
}