; Function Attrs: mustprogress uwtable
define void @_ZN18ConversationAction14setFieldFilterE10QByteArray(ptr noundef nonnull align 8 dereferenceable(52) %0, ptr noundef nonnull %1) local_unnamed_addr #0 align 2 {
  %3 = getelementptr inbounds i8, ptr %0, i64 24
  %4 = tail call noundef nonnull align 8 dereferenceable(24) ptr @_ZN10QByteArrayaSERKS_(ptr noundef nonnull align 8 dereferenceable(24) %3, ptr noundef nonnull align 8 dereferenceable(24) %1) #7
  %5 = getelementptr inbounds i8, ptr %0, i64 40
  %6 = load i64, ptr %5, align 8
  %7 = icmp ne i64 %6, 0
  tail call void @_ZN7QAction10setEnabledEb(ptr noundef nonnull align 8 dereferenceable(16) %0, i1 noundef zeroext %7)
  ret void
}